; Function Attrs: nounwind uwtable
define void @Acec_ManCollectBoxSets_rec(ptr noundef %0, i32 noundef %1, i32 noundef %2, ptr noundef %3, ptr noundef %4, ptr noundef %5, ptr noundef %6) local_unnamed_addr #3 {
  %8 = getelementptr i8, ptr %4, i64 8
  %.val36 = load ptr, ptr %8, align 8, !tbaa !29
  %9 = sext i32 %1 to i64
  %10 = getelementptr inbounds i32, ptr %.val36, i64 %9
  %11 = load i32, ptr %10, align 4, !tbaa !31
  %12 = icmp eq i32 %11, -1
  br i1 %12, label %63, label %13

13:                                               ; preds = %7
  %14 = mul nsw i32 %11, 6
  %15 = getelementptr i8, ptr %3, i64 8
  %.val35 = load ptr, ptr %15, align 8, !tbaa !29
  %16 = sext i32 %14 to i64
  %17 = getelementptr inbounds i32, ptr %.val35, i64 %16
  %18 = load i32, ptr %17, align 4, !tbaa !31
  %19 = add nsw i32 %2, 1
  tail call void @Acec_ManCollectBoxSets_rec(ptr noundef %0, i32 noundef %18, i32 noundef %19, ptr noundef %3, ptr noundef nonnull %4, ptr noundef %5, ptr noundef %6)
  %20 = or disjoint i32 %14, 1
  %.val34 = load ptr, ptr %15, align 8, !tbaa !29
  %21 = sext i32 %20 to i64
  %22 = getelementptr inbounds i32, ptr %.val34, i64 %21
  %23 = load i32, ptr %22, align 4, !tbaa !31
  tail call void @Acec_ManCollectBoxSets_rec(ptr noundef %0, i32 noundef %23, i32 noundef %19, ptr noundef %3, ptr noundef nonnull %4, ptr noundef %5, ptr noundef %6)
  %.val33 = load ptr, ptr %15, align 8, !tbaa !29
  %24 = getelementptr i32, ptr %.val33, i64 %16
  %25 = getelementptr i8, ptr %24, i64 8
  %26 = load i32, ptr %25, align 4, !tbaa !31
  %.not = icmp eq i32 %26, 0
  br i1 %.not, label %28, label %27

27:                                               ; preds = %13
  tail call void @Acec_ManCollectBoxSets_rec(ptr noundef %0, i32 noundef %26, i32 noundef %19, ptr noundef nonnull %3, ptr noundef nonnull %4, ptr noundef %5, ptr noundef %6)
  br label %28

28:                                               ; preds = %27, %13
  %29 = getelementptr inbounds nuw i8, ptr %5, i64 4
  %30 = load i32, ptr %29, align 4, !tbaa !30
  %31 = load i32, ptr %5, align 8, !tbaa !28
  %32 = icmp eq i32 %30, %31
  br i1 %32, label %33, label %.Vec_IntGrow.exit10_crit_edge.i

.Vec_IntGrow.exit10_crit_edge.i:                  ; preds = %28
  %.phi.trans.insert.i = getelementptr inbounds nuw i8, ptr %5, i64 8
  %.pre.i = load ptr, ptr %.phi.trans.insert.i, align 8, !tbaa !29
  br label %Vec_IntPush.exit

33:                                               ; preds = %28
  %34 = icmp slt i32 %30, 16
  br i1 %34, label %35, label %43

35:                                               ; preds = %33
  %36 = getelementptr inbounds nuw i8, ptr %5, i64 8
  %37 = load ptr, ptr %36, align 8, !tbaa !29
  %.not9.i.i = icmp eq ptr %37, null
  br i1 %.not9.i.i, label %40, label %38

38:                                               ; preds = %35
  %39 = tail call dereferenceable_or_null(64) ptr @realloc(ptr noundef nonnull %37, i64 noundef 64) #20
  br label %Vec_IntGrow.exit.i

40:                                               ; preds = %35
  %41 = tail call noalias dereferenceable_or_null(64) ptr @malloc(i64 noundef 64) #19
  br label %Vec_IntGrow.exit.i

Vec_IntGrow.exit.i:                               ; preds = %40, %38
  %42 = phi ptr [ %39, %38 ], [ %41, %40 ]
  store ptr %42, ptr %36, align 8, !tbaa !29
  store i32 16, ptr %5, align 8, !tbaa !28
  br label %Vec_IntPush.exit

43:                                               ; preds = %33
  %44 = shl nuw nsw i32 %30, 1
  %45 = getelementptr inbounds nuw i8, ptr %5, i64 8
  %46 = load ptr, ptr %45, align 8, !tbaa !29
  %.not9.i9.i = icmp eq ptr %46, null
  %47 = zext nneg i32 %44 to i64
  %48 = shl nuw nsw i64 %47, 2
  br i1 %.not9.i9.i, label %51, label %49

49:                                               ; preds = %43
  %50 = tail call ptr @realloc(ptr noundef nonnull %46, i64 noundef %48) #20
  br label %53

51:                                               ; preds = %43
  %52 = tail call noalias ptr @malloc(i64 noundef %48) #19
  br label %53

53:                                               ; preds = %51, %49
  %54 = phi ptr [ %50, %49 ], [ %52, %51 ]
  store ptr %54, ptr %45, align 8, !tbaa !29
  store i32 %44, ptr %5, align 8, !tbaa !28
  br label %Vec_IntPush.exit

Vec_IntPush.exit:                                 ; preds = %.Vec_IntGrow.exit10_crit_edge.i, %Vec_IntGrow.exit.i, %53
  %55 = phi ptr [ %.pre.i, %.Vec_IntGrow.exit10_crit_edge.i ], [ %54, %53 ], [ %42, %Vec_IntGrow.exit.i ]
  %56 = load i32, ptr %29, align 4, !tbaa !30
  %57 = add nsw i32 %56, 1
  store i32 %57, ptr %29, align 4, !tbaa !30
  %58 = sext i32 %56 to i64
  %59 = getelementptr inbounds i32, ptr %55, i64 %58
  store i32 %11, ptr %59, align 4, !tbaa !31
  %60 = getelementptr i8, ptr %6, i64 8
  %.val37 = load ptr, ptr %60, align 8, !tbaa !29
  %61 = sext i32 %11 to i64
  %62 = getelementptr inbounds i32, ptr %.val37, i64 %61
  store i32 %2, ptr %62, align 4, !tbaa !31
  br label %63

63:                                               ; preds = %7, %Vec_IntPush.exit
  ret void
}